; Function Attrs: mustprogress uwtable
define noundef zeroext i1 @_ZNK6google8protobuf10TextFormat7Printer18PrintUnknownFieldsERKNS0_15UnknownFieldSetEPNS0_2io20ZeroCopyOutputStreamE(ptr noundef nonnull align 8 dereferenceable(112) %this, ptr nocapture noundef nonnull readonly align 8 dereferenceable(24) %unknown_fields, ptr noundef %output) local_unnamed_addr #4 align 2 personality ptr @__gxx_personality_v0 {
entry:
  %generator = alloca %"class.google::protobuf::TextFormat::Printer::TextGenerator", align 8
  %0 = load i32, ptr %this, align 8
  store ptr getelementptr inbounds ({ [10 x ptr] }, ptr @_ZTVN6google8protobuf10TextFormat7Printer13TextGeneratorE, i64 0, i32 0, i64 2), ptr %generator, align 8
  %output_.i = getelementptr inbounds i8, ptr %generator, i64 8
  store ptr %output, ptr %output_.i, align 8
  %buffer_.i = getelementptr inbounds i8, ptr %generator, i64 16
  store ptr null, ptr %buffer_.i, align 8
  %buffer_size_.i = getelementptr inbounds i8, ptr %generator, i64 24
  store i32 0, ptr %buffer_size_.i, align 8
  %at_start_of_line_.i = getelementptr inbounds i8, ptr %generator, i64 28
  store i8 1, ptr %at_start_of_line_.i, align 4
  %failed_.i = getelementptr inbounds i8, ptr %generator, i64 29
  store i8 0, ptr %failed_.i, align 1
  %insert_silent_marker_.i = getelementptr inbounds i8, ptr %generator, i64 30
  store i8 0, ptr %insert_silent_marker_.i, align 2
  %indent_level_.i = getelementptr inbounds i8, ptr %generator, i64 32
  store i32 %0, ptr %indent_level_.i, align 8
  %initial_indent_level_.i = getelementptr inbounds i8, ptr %generator, i64 36
  store i32 %0, ptr %initial_indent_level_.i, align 4
  invoke void @_ZNK6google8protobuf10TextFormat7Printer18PrintUnknownFieldsERKNS0_15UnknownFieldSetEPNS1_17BaseTextGeneratorEi(ptr noundef nonnull align 8 dereferenceable(112) %this, ptr noundef nonnull align 8 dereferenceable(24) %unknown_fields, ptr noundef nonnull %generator, i32 noundef 10)
          to label %invoke.cont unwind label %lpad

invoke.cont:                                      ; preds = %entry
  %1 = load i8, ptr %failed_.i, align 1
  %2 = and i8 %1, 1
  store ptr getelementptr inbounds ({ [10 x ptr] }, ptr @_ZTVN6google8protobuf10TextFormat7Printer13TextGeneratorE, i64 0, i32 0, i64 2), ptr %generator, align 8
  %tobool.not.i = icmp eq i8 %2, 0
  br i1 %tobool.not.i, label %if.then.i, label %_ZN6google8protobuf10TextFormat7Printer13TextGeneratorD2Ev.exit

if.then.i:                                        ; preds = %invoke.cont
  %3 = load ptr, ptr %output_.i, align 8
  %4 = load i32, ptr %buffer_size_.i, align 8
  %vtable.i = load ptr, ptr %3, align 8
  %vfn.i = getelementptr inbounds i8, ptr %vtable.i, i64 24
  %5 = load ptr, ptr %vfn.i, align 8
  invoke void %5(ptr noundef nonnull align 8 dereferenceable(8) %3, i32 noundef %4)
          to label %_ZN6google8protobuf10TextFormat7Printer13TextGeneratorD2Ev.exit unwind label %terminate.lpad.i

terminate.lpad.i:                                 ; preds = %if.then.i
  %6 = landingpad { ptr, i32 }
          catch ptr null
  %7 = extractvalue { ptr, i32 } %6, 0
  call void @__clang_call_terminate(ptr %7) #36
  unreachable

_ZN6google8protobuf10TextFormat7Printer13TextGeneratorD2Ev.exit: ; preds = %invoke.cont, %if.then.i
  ret i1 %tobool.not.i

lpad:                                             ; preds = %entry
  %8 = landingpad { ptr, i32 }
          cleanup
  call void @_ZN6google8protobuf10TextFormat7Printer13TextGeneratorD2Ev(ptr noundef nonnull align 8 dereferenceable(40) %generator) #34
  resume { ptr, i32 } %8
}